#include <math.h>
#include <stdio.h>
#include <stdlib.h>
#include <string.h>
#include <iostream>
using namespace std;

int main()
{
	int n;
	cin>> n;
	if(n==1) {cout<<"End";}   //??????1?????
	while(n!=1)
	{
		if(n%2==0) {n=n/2;cout<< 2*n <<"/2="<< n <<endl;}  //???????????2
		else if(n%2!=0) {n=n*3+1;cout<< (n-1)/3 <<"*3+1="<< n <<endl;} //??????????3?1
		if(n==1)  {cout<<"End";break;} //????1???
	}
	return 0;
}